target datalayout = "e-m:e-p270:32:32-p271:32:32-p272:64:64-i64:64-i128:128-f80:128-n8:16:32:64-S128"
target triple = "x86_64-pc-linux-gnu"

%struct.MovTextContext = type { ptr, ptr, ptr, ptr, ptr, i32, i32, %struct.StyleBox, %struct.AVBPrint, %struct.HighlightBox, %struct.HilightcolorBox, i8, %struct.StyleBox, i16, ptr, i32, double, i32 }
%struct.AVBPrint = type { ptr, i32, i32, i32, [1 x i8], [1000 x i8] }
%struct.HighlightBox = type { i16, i16 }
%struct.HilightcolorBox = type { i32 }
%struct.StyleBox = type { i16, i16, i8, i16, i8, i32 }

; Function Attrs: nounwind uwtable
define internal void @mov_text_font_size_set(ptr noundef %0, i32 noundef %1) #1 {
  %3 = alloca ptr, align 8
  %4 = alloca i32, align 4
  store ptr %0, ptr %3, align 8, !tbaa !29
  store i32 %1, ptr %4, align 4, !tbaa !42
  %5 = load i32, ptr %4, align 4, !tbaa !42
  %6 = sitofp i32 %5 to double
  %7 = load ptr, ptr %3, align 8, !tbaa !29
  %8 = getelementptr inbounds nuw %struct.MovTextContext, ptr %7, i32 0, i32 16
  %9 = load double, ptr %8, align 8, !tbaa !72
  %10 = call nsz double @llvm.fmuladd.f64(double %6, double %9, double 5.000000e-01)
  %11 = fptosi double %10 to i32
  store i32 %11, ptr %4, align 4, !tbaa !42
  %12 = load ptr, ptr %3, align 8, !tbaa !29
  %13 = getelementptr inbounds nuw %struct.MovTextContext, ptr %12, i32 0, i32 7
  %14 = getelementptr inbounds nuw %struct.StyleBox, ptr %13, i32 0, i32 4
  %15 = load i8, ptr %14, align 8, !tbaa !107
  %16 = zext i8 %15 to i32
  %17 = load i32, ptr %4, align 4, !tbaa !42
  %18 = icmp eq i32 %16, %17
  br i1 %18, label %19, label %20

19:                                               ; preds = %2
  br label %30

20:                                               ; preds = %2
  %21 = load ptr, ptr %3, align 8, !tbaa !29
  %22 = call i32 @mov_text_style_start(ptr noundef %21)
  %23 = icmp ne i32 %22, 0
  br i1 %23, label %24, label %30

24:                                               ; preds = %20
  %25 = load i32, ptr %4, align 4, !tbaa !42
  %26 = trunc i32 %25 to i8
  %27 = load ptr, ptr %3, align 8, !tbaa !29
  %28 = getelementptr inbounds nuw %struct.MovTextContext, ptr %27, i32 0, i32 7
  %29 = getelementptr inbounds nuw %struct.StyleBox, ptr %28, i32 0, i32 4
  store i8 %26, ptr %29, align 8, !tbaa !107
  br label %30

30:                                               ; preds = %19, %24, %20
  ret void
}

; Function Attrs: nounwind uwtable
define internal void @mov_text_font_size_cb(ptr noundef %0, i32 noundef %1) #1 {
  %3 = alloca ptr, align 8
  %4 = alloca i32, align 4
  store ptr %0, ptr %3, align 8, !tbaa !29
  store i32 %1, ptr %4, align 4, !tbaa !42
  %5 = load ptr, ptr %3, align 8, !tbaa !29
  %6 = load i32, ptr %4, align 4, !tbaa !42
  call void @mov_text_font_size_set(ptr noundef %5, i32 noundef %6)
  ret void
}