; Function Attrs: nounwind uwtable
define internal void @mov_text_font_size_cb(ptr noundef %0, i32 noundef %1) #1 {
  %3 = sitofp i32 %1 to double
  %4 = getelementptr inbounds nuw i8, ptr %0, i64 1136
  %5 = load double, ptr %4, align 8, !tbaa !44
  %6 = tail call nsz double @llvm.fmuladd.f64(double %3, double %5, double 5.000000e-01)
  %7 = fptosi double %6 to i32
  %8 = getelementptr inbounds nuw i8, ptr %0, i64 56
  %9 = load i8, ptr %8, align 8, !tbaa !98
  %10 = zext i8 %9 to i32
  %11 = icmp eq i32 %10, %7
  br i1 %11, label %mov_text_font_size_set.exit, label %12

12:                                               ; preds = %2
  %13 = tail call fastcc i32 @mov_text_style_start(ptr noundef nonnull %0)
  %.not.i = icmp eq i32 %13, 0
  br i1 %.not.i, label %mov_text_font_size_set.exit, label %14

14:                                               ; preds = %12
  %15 = trunc i32 %7 to i8
  store i8 %15, ptr %8, align 8, !tbaa !98
  br label %mov_text_font_size_set.exit

mov_text_font_size_set.exit:                      ; preds = %2, %12, %14
  ret void
}